Certificate:
    Data:
        Version: 3 (0x2)
        Serial Number: 1 (0x1)
        Signature Algorithm: sha1WithRSAEncryption
        Issuer: C=DE, ST=Baden-W\xC3\xBCrttemberg, L=Riegel am Kaiserstuhl, O=the native web UG (haftungsbeschr\xC3\xA4nkt), OU=ca/emailAddress=hello@thenativeweb.io
        Validity
            Not Before: Mar 12 08:01:41 2013 GMT
            Not After : Mar 10 08:01:41 2023 GMT
        Subject: C=DE, ST=Baden-W\xC3\xBCrttemberg, L=Riegel am Kaiserstuhl, O=the native web UG (haftungsbeschr\xC3\xA4nkt), CN=localhost/emailAddress=hello@thenativeweb.io
        Subject Public Key Info:
            Public Key Algorithm: rsaEncryption
            RSA Public Key: (2048 bit)
                Modulus (2048 bit):
                    00:be:1d:08:84:ed:63:a4:6e:d7:cd:10:b1:9a:4d:
                    ac:5d:5d:63:14:00:58:5b:7b:43:2d:59:a3:3a:60:
                    71:7b:80:86:7f:94:89:3d:66:aa:03:6e:fd:21:73:
                    fb:f2:3e:bd:b2:4a:93:56:e0:da:fb:09:cf:0a:7d:
                    d5:c2:9a:4d:d6:c6:71:71:bd:99:9b:ef:92:87:a0:
                    55:4f:ca:db:71:5e:fe:4e:a4:bd:fb:8b:62:82:38:
                    16:70:39:a0:23:02:b8:93:ac:97:3c:da:a9:e6:06:
                    07:e7:44:ea:88:93:5a:07:29:5d:16:07:c5:4c:2b:
                    58:3e:12:c4:4d:47:3e:75:ee:eb:6a:90:e1:28:67:
                    b7:bc:1f:27:11:14:d9:da:79:3e:e0:59:fa:c3:0a:
                    96:3a:4a:93:93:79:15:20:c0:22:89:5b:4f:95:cb:
                    57:31:ae:59:f1:ca:f7:53:50:bb:d1:cb:c0:5f:30:
                    d5:f2:9a:c2:3a:cc:ce:0b:4d:6d:76:2e:ae:e7:ae:
                    66:cc:7a:2d:d6:84:77:07:a6:a0:c8:7e:34:79:f5:
                    09:2c:45:78:74:ba:bb:d9:d6:a5:9f:b0:9a:76:56:
                    9a:be:03:65:2b:40:17:45:e1:1f:77:ae:e8:df:fa:
                    ca:bb:9e:31:a0:c6:50:46:f7:56:3c:75:11:08:ca:
                    3c:f3
                Exponent: 65537 (0x10001)
        X509v3 extensions:
            X509v3 Basic Constraints: 
                CA:FALSE
            Netscape Comment: 
                OpenSSL Generated Certificate
            X509v3 Subject Key Identifier: 
                95:EF:7F:1D:9C:5F:16:B6:5C:48:22:7D:8C:7F:61:08:23:51:26:C0
            X509v3 Authority Key Identifier: 
                keyid:95:EF:7F:1D:9C:5F:16:B6:5C:48:22:7D:8C:7F:61:08:23:51:26:C0

    Signature Algorithm: sha1WithRSAEncryption
        95:e5:98:d8:31:57:4e:3c:b1:d0:cb:6e:32:fa:65:43:22:98:
        62:fc:e7:53:07:cc:62:0e:fa:d0:12:6e:1c:f4:19:1a:a9:b9:
        57:50:98:2f:cb:b2:83:79:b7:03:06:9d:d4:2b:e1:db:b0:92:
        18:34:a5:ac:66:a1:25:1a:45:e4:01:b3:3b:d0:2c:71:a5:c4:
        ff:84:5d:83:81:45:ed:73:30:66:5e:1e:11:46:05:2b:93:43:
        84:21:4f:f6:bd:e7:3f:4f:68:5c:55:1e:47:50:94:fb:be:9e:
        52:e2:19:e1:44:fc:ed:82:6d:55:10:91:f2:d8:fe:ce:81:2a:
        5e:78:8e:30:a0:92:e1:73:bc:13:c7:80:b0:c9:72:a6:d4:af:
        63:3e:f3:f4:ce:ec:c8:25:68:c6:fa:19:08:04:00:8e:b6:18:
        06:7a:05:6f:51:5a:b7:3e:c1:c3:d5:0b:cf:b6:8a:6c:47:23:
        05:93:11:54:bf:66:d3:19:f1:9d:c9:ac:e5:40:1d:a5:5b:79:
        92:24:fe:08:a5:8a:f8:b0:39:de:56:4c:e6:fd:b2:14:93:65:
        d3:bb:bc:9d:98:51:5b:f4:4e:15:a3:c9:22:2c:af:33:3b:96:
        c1:cf:3b:05:26:72:3b:7d:42:fe:8c:38:1a:63:c6:87:50:b5:
        50:85:f2:6c
-----BEGIN CERTIFICATE-----
MIIEXTCCA0WgAwIBAgIBATANBgkqhkiG9w0BAQUFADCBrzELMAkGA1UEBhMCREUx
GzAZBgNVBAgUEkJhZGVuLVfDvHJ0dGVtYmVyZzEeMBwGA1UEBxMVUmllZ2VsIGFt
IEthaXNlcnN0dWhsMTAwLgYDVQQKFCd0aGUgbmF0aXZlIHdlYiBVRyAoaGFmdHVu
Z3NiZXNjaHLDpG5rdCkxCzAJBgNVBAsTAmNhMSQwIgYJKoZIhvcNAQkBFhVoZWxs
b0B0aGVuYXRpdmV3ZWIuaW8wHhcNMTMwMzEyMDgwMTQxWhcNMjMwMzEwMDgwMTQx
WjCBtjELMAkGA1UEBhMCREUxGzAZBgNVBAgUEkJhZGVuLVfDvHJ0dGVtYmVyZzEe
MBwGA1UEBxMVUmllZ2VsIGFtIEthaXNlcnN0dWhsMTAwLgYDVQQKFCd0aGUgbmF0
aXZlIHdlYiBVRyAoaGFmdHVuZ3NiZXNjaHLDpG5rdCkxEjAQBgNVBAMTCWxvY2Fs
aG9zdDEkMCIGCSqGSIb3DQEJARYVaGVsbG9AdGhlbmF0aXZld2ViLmlvMIIBIjAN
BgkqhkiG9w0BAQEFAAOCAQ8AMIIBCgKCAQEAvh0IhO1jpG7XzRCxmk2sXV1jFABY
W3tDLVmjOmBxe4CGf5SJPWaqA279IXP78j69skqTVuDa+wnPCn3VwppN1sZxcb2Z
m++Sh6BVT8rbcV7+TqS9+4tigjgWcDmgIwK4k6yXPNqp5gYH50TqiJNaByldFgfF
TCtYPhLETUc+de7rapDhKGe3vB8nERTZ2nk+4Fn6wwqWOkqTk3kVIMAiiVtPlctX
Ma5Z8cr3U1C70cvAXzDV8prCOszOC01tdi6u565mzHot1oR3B6agyH40efUJLEV4
dLq72daln7CadlaavgNlK0AXReEfd67o3/rKu54xoMZQRvdWPHURCMo88wIDAQAB
o3sweTAJBgNVHRMEAjAAMCwGCWCGSAGG+EIBDQQfFh1PcGVuU1NMIEdlbmVyYXRl
ZCBDZXJ0aWZpY2F0ZTAdBgNVHQ4EFgQUle9/HZxfFrZcSCJ9jH9hCCNRJsAwHwYD
VR0jBBgwFoAUle9/HZxfFrZcSCJ9jH9hCCNRJsAwDQYJKoZIhvcNAQEFBQADggEB
AJXlmNgxV048sdDLbjL6ZUMimGL851MHzGIO+tASbhz0GRqpuVdQmC/LsoN5twMG
ndQr4duwkhg0paxmoSUaReQBszvQLHGlxP+EXYOBRe1zMGZeHhFGBSuTQ4QhT/a9
5z9PaFxVHkdQlPu+nlLiGeFE/O2CbVUQkfLY/s6BKl54jjCgkuFzvBPHgLDJcqbU
r2M+8/TO7MglaMb6GQgEAI62GAZ6BW9RWrc+wcPVC8+2imxHIwWTEVS/ZtMZ8Z3J
rOVAHaVbeZIk/giliviwOd5WTOb9shSTZdO7vJ2YUVv0ThWjySIsrzM7lsHPOwUm
cjt9Qv6MOBpjxodQtVCF8mw=
-----END CERTIFICATE-----
